(dp0
S'METTS MARK'
p1
(dp2
S'salary'
p3
I365788
sS'poi_from_emails_frac'
p4
F0.034482758620689655
sS'total_payments'
p5
I1061827
sS'bonus'
p6
I600000
sS'email_avail'
p7
I01
sS'shared_receipt_with_poi'
p8
I702
sS'from_poi_to_this_person'
p9
I38
sS'exercised_stock_options'
p10
I0
sS'zero_values'
p11
F0.34782608695652173
sS'poi_to_emails_frac'
p12
F0.04708798017348203
sS'poi'
p13
I00
sS'deferred_income'
p14
I0
sS'expenses'
p15
I94299
sS'poi_all_emails_frac'
p16
F0.04665071770334928
sS'long_term_incentive'
p17
I0
ssS'BAXTER JOHN C'
p18
(dp19
g3
I267102
sg4
F0.0
sg5
I5634343
sg6
I1200000
sg7
I00
sg8
I0
sg9
I0
sg10
I6680544
sg11
F0.43478260869565216
sg12
F0.0
sg13
I00
sg14
I-1386055
sg15
I11200
sg16
F0.0
sg17
I1586055
ssS'ELLIOTT STEVEN'
p20
(dp21
g3
I170941
sg4
F0.0
sg5
I211725
sg6
I350000
sg7
I01
sg8
I0
sg9
I0
sg10
I4890344
sg11
F0.4782608695652174
sg12
F0.0
sg13
I00
sg14
I-400729
sg15
I78552
sg16
F0.0
sg17
I0
ssS'CORDES WILLIAM R'
p22
(dp23
g3
I0
sg4
F0.0
sg5
I0
sg6
I0
sg7
I01
sg8
I58
sg9
I10
sg10
I651850
sg11
F0.5652173913043478
sg12
F0.013089005235602094
sg13
I00
sg14
I0
sg15
I0
sg16
F0.01288659793814433
sg17
I0
ssS'HANNON KEVIN P'
p24
(dp25
g3
I243293
sg4
F0.65625
sg5
I288682
sg6
I1500000
sg7
I01
sg8
I1035
sg9
I32
sg10
I5538001
sg11
F0.17391304347826086
sg12
F0.03062200956937799
sg13
I01
sg14
I-3117011
sg15
I34039
sg16
F0.04921077065923862
sg17
I1617011
ssS'MORDAUNT KRISTINA M'
p26
(dp27
g3
I267093
sg4
F0.0
sg5
I628522
sg6
I325000
sg7
I01
sg8
I0
sg9
I0
sg10
I0
sg11
F0.5652173913043478
sg12
F0.0
sg13
I00
sg14
I0
sg15
I35018
sg16
F0.0
sg17
I0
ssS'MEYER ROCKFORD G'
p28
(dp29
g3
I0
sg4
F0.0
sg5
I1848227
sg6
I0
sg7
I01
sg8
I22
sg9
I0
sg10
I493489
sg11
F0.5217391304347826
sg12
F0.0
sg13
I00
sg14
I0
sg15
I0
sg16
F0.0
sg17
I0
ssS'MCMAHON JEFFREY'
p30
(dp31
g3
I370448
sg4
F0.5416666666666666
sg5
I4099771
sg6
I2600000
sg7
I01
sg8
I2228
sg9
I58
sg10
I1104054
sg11
F0.2608695652173913
sg12
F0.024628450106157114
sg13
I00
sg14
I0
sg15
I137108
sg16
F0.03495630461922597
sg17
I694862
ssS'HAEDICKE MARK E'
p32
(dp33
g3
I374125
sg4
F0.03142709943328181
sg5
I3859065
sg6
I1150000
sg7
I01
sg8
I1847
sg9
I180
sg10
I608750
sg11
F0.13043478260869565
sg12
F0.04489897730107259
sg13
I00
sg14
I-934484
sg15
I76169
sg16
F0.04050420168067227
sg17
I983346
ssS'PIPER GREGORY F'
p34
(dp35
g3
I197091
sg4
F0.21621621621621623
sg5
I1737629
sg6
I400000
sg7
I01
sg8
I742
sg9
I61
sg10
I880290
sg11
F0.17391304347826086
sg12
F0.049273021001615507
sg13
I00
sg14
I-33333
sg15
I43057
sg16
F0.07465753424657534
sg17
I0
ssS'HUMPHREY GENE E'
p36
(dp37
g3
I130724
sg4
F1.0
sg5
I3100224
sg6
I0
sg7
I01
sg8
I119
sg9
I10
sg10
I2282768
sg11
F0.391304347826087
sg12
F0.078125
sg13
I00
sg14
I0
sg15
I4994
sg16
F0.18620689655172415
sg17
I0
ssS'NOLES JAMES L'
p38
(dp39
g3
I0
sg4
F0.0
sg5
I774401
sg6
I0
sg7
I00
sg8
I0
sg9
I0
sg10
I0
sg11
F0.6956521739130435
sg12
F0.0
sg13
I00
sg14
I0
sg15
I0
sg16
F0.0
sg17
I0
ssS'BLACHMAN JEREMY M'
p40
(dp41
g3
I248546
sg4
F0.14285714285714285
sg5
I2014835
sg6
I850000
sg7
I01
sg8
I2326
sg9
I25
sg10
I765313
sg11
F0.2608695652173913
sg12
F0.010101010101010102
sg13
I00
sg14
I0
sg15
I84208
sg16
F0.010847730012053034
sg17
I831809
ssS'SUNDE MARTIN'
p42
(dp43
g3
I257486
sg4
F0.34210526315789475
sg5
I1545059
sg6
I700000
sg7
I01
sg8
I2565
sg9
I37
sg10
I0
sg11
F0.34782608695652173
sg12
F0.013978088401964487
sg13
I00
sg14
I0
sg15
I0
sg16
F0.0186219739292365
sg17
I476451
ssS'GIBBS DANA R'
p44
(dp45
g3
I0
sg4
F0.0
sg5
I966522
sg6
I0
sg7
I01
sg8
I23
sg9
I0
sg10
I2218275
sg11
F0.5217391304347826
sg12
F0.0
sg13
I00
sg14
I0
sg15
I0
sg16
F0.0
sg17
I461912
ssS'LOWRY CHARLES P'
p46
(dp47
g3
I0
sg4
F0.0
sg5
I0
sg6
I0
sg7
I00
sg8
I0
sg9
I0
sg10
I372205
sg11
F0.7391304347826086
sg12
F0.0
sg13
I00
sg14
I0
sg15
I0
sg16
F0.0
sg17
I0
ssS'COLWELL WESLEY'
p48
(dp49
g3
I288542
sg4
F0.275
sg5
I1490344
sg6
I1200000
sg7
I01
sg8
I1132
sg9
I240
sg10
I0
sg11
F0.21739130434782608
sg12
F0.13651877133105803
sg13
I01
sg14
I-144062
sg15
I16514
sg16
F0.13959955506117908
sg17
I0
ssS'MULLER MARK S'
p50
(dp51
g3
I251654
sg4
F0.0
sg5
I3202070
sg6
I1100000
sg7
I01
sg8
I114
sg9
I12
sg10
I1056320
sg11
F0.2608695652173913
sg12
F0.08823529411764706
sg13
I00
sg14
I-719000
sg15
I0
sg16
F0.07894736842105263
sg17
I1725545
ssS'JACKSON CHARLENE R'
p52
(dp53
g3
I288558
sg4
F0.3392857142857143
sg5
I551174
sg6
I250000
sg7
I01
sg8
I117
sg9
I25
sg10
I185063
sg11
F0.30434782608695654
sg12
F0.09689922480620156
sg13
I00
sg14
I0
sg15
I10181
sg16
F0.14012738853503184
sg17
I0
ssS'WESTFAHL RICHARD K'
p54
(dp55
g3
I63744
sg4
F0.0
sg5
I762135
sg6
I0
sg7
I01
sg8
I0
sg9
I0
sg10
I0
sg11
F0.5217391304347826
sg12
F0.0
sg13
I00
sg14
I-10800
sg15
I51870
sg16
F0.0
sg17
I256191
ssS'WALTERS GARETH W'
p56
(dp57
g3
I0
sg4
F0.0
sg5
I87410
sg6
I0
sg7
I00
sg8
I0
sg9
I0
sg10
I1030329
sg11
F0.6956521739130435
sg12
F0.0
sg13
I00
sg14
I0
sg15
I33785
sg16
F0.0
sg17
I0
ssS'WALLS JR ROBERT H'
p58
(dp59
g3
I357091
sg4
F0.0
sg5
I1798780
sg6
I850000
sg7
I01
sg8
I215
sg9
I17
sg10
I4346544
sg11
F0.30434782608695654
sg12
F0.02533532041728763
sg13
I00
sg14
I0
sg15
I50936
sg16
F0.0208078335373317
sg17
I540751
ssS'KITCHEN LOUISE'
p60
(dp61
g3
I271442
sg4
F0.11226851851851852
sg5
I3471141
sg6
I3100000
sg7
I01
sg8
I3669
sg9
I251
sg10
I81042
sg11
F0.30434782608695654
sg12
F0.030222757375075255
sg13
I00
sg14
I0
sg15
I5774
sg16
F0.044353633011063494
sg17
I0
ssS'CHAN RONNIE'
p62
(dp63
g3
I0
sg4
F0.0
sg5
I0
sg6
I0
sg7
I00
sg8
I0
sg9
I0
sg10
I0
sg11
F0.7391304347826086
sg12
F0.0
sg13
I00
sg14
I-98784
sg15
I0
sg16
F0.0
sg17
I0
ssS'BELFER ROBERT'
p64
(dp65
g3
I0
sg4
F0.0
sg5
I102500
sg6
I0
sg7
I00
sg8
I0
sg9
I0
sg10
I3285
sg11
F0.6521739130434783
sg12
F0.0
sg13
I00
sg14
I0
sg15
I0
sg16
F0.0
sg17
I0
ssS'SHANKMAN JEFFREY A'
p66
(dp67
g3
I304110
sg4
F0.030958597538232
sg5
I3038702
sg6
I2000000
sg7
I01
sg8
I1730
sg9
I94
sg10
I1441898
sg11
F0.2608695652173913
sg12
F0.029183483390251473
sg13
I00
sg14
I0
sg15
I178979
sg16
F0.029989833954591663
sg17
I554422
ssS'WODRASKA JOHN'
p68
(dp69
g3
I0
sg4
F0.0
sg5
I189583
sg6
I0
sg7
I01
sg8
I0
sg9
I0
sg10
I0
sg11
F0.782608695652174
sg12
F0.0
sg13
I00
sg14
I0
sg15
I0
sg16
F0.0
sg17
I0
ssS'BERGSIEKER RICHARD P'
p70
(dp71
g3
I187922
sg4
F0.0
sg5
I618850
sg6
I250000
sg7
I01
sg8
I233
sg9
I4
sg10
I0
sg11
F0.30434782608695654
sg12
F0.010443864229765013
sg13
I00
sg14
I-485813
sg15
I59175
sg16
F0.00904977375565611
sg17
I180250
ssS'URQUHART JOHN A'
p72
(dp73
g3
I0
sg4
F0.0
sg5
I228656
sg6
I0
sg7
I00
sg8
I0
sg9
I0
sg10
I0
sg11
F0.7391304347826086
sg12
F0.0
sg13
I00
sg14
I-36666
sg15
I228656
sg16
F0.0
sg17
I0
ssS'BIBI PHILIPPE A'
p74
(dp75
g3
I213625
sg4
F0.2
sg5
I2047593
sg6
I1000000
sg7
I01
sg8
I1336
sg9
I23
sg10
I1465734
sg11
F0.2608695652173913
sg12
F0.01431238332296204
sg13
I00
sg14
I0
sg15
I38559
sg16
F0.018822100789313904
sg17
I369721
ssS'RIEKER PAULA H'
p76
(dp77
g3
I249201
sg4
F0.5853658536585366
sg5
I1099100
sg6
I700000
sg7
I01
sg8
I1258
sg9
I35
sg10
I1635238
sg11
F0.17391304347826086
sg12
F0.02635542168674699
sg13
I01
sg14
I-100000
sg15
I33271
sg16
F0.058865248226950356
sg17
I0
ssS'WHALEY DAVID A'
p78
(dp79
g3
I0
sg4
F0.0
sg5
I0
sg6
I0
sg7
I00
sg8
I0
sg9
I0
sg10
I98718
sg11
F0.8260869565217391
sg12
F0.0
sg13
I00
sg14
I0
sg15
I0
sg16
F0.0
sg17
I0
ssS'BECK SALLY W'
p80
(dp81
g3
I231330
sg4
F0.08887865530739121
sg5
I969068
sg6
I700000
sg7
I01
sg8
I2639
sg9
I144
sg10
I0
sg11
F0.34782608695652173
sg12
F0.01968557758031442
sg13
I00
sg14
I0
sg15
I37172
sg16
F0.0454623434551381
sg17
I0
ssS'HAUG DAVID L'
p82
(dp83
g3
I0
sg4
F0.3684210526315789
sg5
I475
sg6
I0
sg7
I01
sg8
I471
sg9
I4
sg10
I0
sg11
F0.4782608695652174
sg12
F0.006980802792321117
sg13
I00
sg14
I0
sg15
I475
sg16
F0.018581081081081082
sg17
I0
ssS'ECHOLS JOHN B'
p84
(dp85
g3
I182245
sg4
F0.0
sg5
I2692324
sg6
I200000
sg7
I01
sg8
I0
sg9
I0
sg10
I601438
sg11
F0.4782608695652174
sg12
F0.0
sg13
I00
sg14
I0
sg15
I21530
sg16
F0.0
sg17
I2234774
ssS'MENDELSOHN JOHN'
p86
(dp87
g3
I0
sg4
F0.0
sg5
I148
sg6
I0
sg7
I00
sg8
I0
sg9
I0
sg10
I0
sg11
F0.7391304347826086
sg12
F0.0
sg13
I00
sg14
I-103750
sg15
I148
sg16
F0.0
sg17
I0
ssS'HICKERSON GARY J'
p88
(dp89
g3
I211788
sg4
F0.037037037037037035
sg5
I2081796
sg6
I1700000
sg7
I01
sg8
I900
sg9
I40
sg10
I0
sg11
F0.30434782608695654
sg12
F0.030303030303030304
sg13
I00
sg14
I0
sg15
I98849
sg16
F0.030438010393466965
sg17
I69223
ssS'CLINE KENNETH W'
p90
(dp91
g3
I0
sg4
F0.0
sg5
I0
sg6
I0
sg7
I00
sg8
I0
sg9
I0
sg10
I0
sg11
F0.782608695652174
sg12
F0.0
sg13
I00
sg14
I0
sg15
I0
sg16
F0.0
sg17
I0
ssS'LEWIS RICHARD'
p92
(dp93
g3
I0
sg4
F0.0
sg5
I0
sg6
I0
sg7
I01
sg8
I739
sg9
I10
sg10
I850477
sg11
F0.6086956521739131
sg12
F0.01050420168067227
sg13
I00
sg14
I0
sg15
I0
sg16
F0.010224948875255624
sg17
I0
ssS'HAYES ROBERT E'
p94
(dp95
g3
I0
sg4
F0.0
sg5
I7961
sg6
I0
sg7
I01
sg8
I50
sg9
I16
sg10
I0
sg11
F0.5217391304347826
sg12
F0.031746031746031744
sg13
I00
sg14
I0
sg15
I0
sg16
F0.031007751937984496
sg17
I0
ssS'KOPPER MICHAEL J'
p96
(dp97
g3
I224305
sg4
F0.0
sg5
I2652612
sg6
I800000
sg7
I01
sg8
I0
sg9
I0
sg10
I0
sg11
F0.4782608695652174
sg12
F0.0
sg13
I01
sg14
I0
sg15
I118134
sg16
F0.0
sg17
I602671
ssS'LEFF DANIEL P'
p98
(dp99
g3
I273746
sg4
F0.2222222222222222
sg5
I2664228
sg6
I1000000
sg7
I01
sg8
I2672
sg9
I67
sg10
I0
sg11
F0.34782608695652173
sg12
F0.02374202693125443
sg13
I00
sg14
I0
sg15
I0
sg16
F0.028076256499133447
sg17
I1387399
ssS'LAVORATO JOHN J'
p100
(dp101
g3
I339288
sg4
F0.15899419729206962
sg5
I10425757
sg6
I8000000
sg7
I01
sg8
I3962
sg9
I528
sg10
I4158995
sg11
F0.2608695652173913
sg12
F0.07273729163796666
sg13
I00
sg14
I0
sg15
I49537
sg16
F0.09538805363673304
sg17
I2035380
ssS'BERBERIAN DAVID'
p102
(dp103
g3
I216582
sg4
F0.0
sg5
I228474
sg6
I0
sg7
I01
sg8
I0
sg9
I0
sg10
I1624396
sg11
F0.6086956521739131
sg12
F0.0
sg13
I00
sg14
I0
sg15
I11892
sg16
F0.0
sg17
I0
ssS'DETMERING TIMOTHY J'
p104
(dp105
g3
I210500
sg4
F0.0
sg5
I1204583
sg6
I425000
sg7
I01
sg8
I0
sg9
I0
sg10
I2027865
sg11
F0.34782608695652173
sg12
F0.0
sg13
I00
sg14
I-775241
sg15
I52255
sg16
F0.0
sg17
I415657
ssS'WAKEHAM JOHN'
p106
(dp107
g3
I0
sg4
F0.0
sg5
I213071
sg6
I0
sg7
I00
sg8
I0
sg9
I0
sg10
I0
sg11
F0.782608695652174
sg12
F0.0
sg13
I00
sg14
I0
sg15
I103773
sg16
F0.0
sg17
I0
ssS'POWERS WILLIAM'
p108
(dp109
g3
I0
sg4
F0.0
sg5
I0
sg6
I0
sg7
I01
sg8
I12
sg9
I0
sg10
I0
sg11
F0.6521739130434783
sg12
F0.0
sg13
I00
sg14
I-17500
sg15
I0
sg16
F0.0
sg17
I0
ssS'GOLD JOSEPH'
p110
(dp111
g3
I272880
sg4
F0.0
sg5
I2146973
sg6
I750000
sg7
I01
sg8
I0
sg9
I0
sg10
I436515
sg11
F0.5217391304347826
sg12
F0.0
sg13
I00
sg14
I0
sg15
I0
sg16
F0.0
sg17
I304805
ssS'BANNANTINE JAMES M'
p112
(dp113
g3
I477
sg4
F0.0
sg5
I916197
sg6
I0
sg7
I01
sg8
I465
sg9
I39
sg10
I4046157
sg11
F0.30434782608695654
sg12
F0.06890459363957598
sg13
I00
sg14
I-5104
sg15
I56301
sg16
F0.06554621848739496
sg17
I0
ssS'DUNCAN JOHN H'
p114
(dp115
g3
I0
sg4
F0.0
sg5
I77492
sg6
I0
sg7
I00
sg8
I0
sg9
I0
sg10
I371750
sg11
F0.6956521739130435
sg12
F0.0
sg13
I00
sg14
I-25000
sg15
I0
sg16
F0.0
sg17
I0
ssS'SHAPIRO RICHARD S'
p116
(dp117
g3
I269076
sg4
F0.053497942386831275
sg5
I1057548
sg6
I650000
sg7
I01
sg8
I4527
sg9
I74
sg10
I607837
sg11
F0.30434782608695654
sg12
F0.0048848108786058485
sg13
I00
sg14
I0
sg15
I137767
sg16
F0.00849425568320704
sg17
I0
ssS'SHERRIFF JOHN R'
p118
(dp119
g3
I428780
sg4
F0.25
sg5
I4335388
sg6
I1500000
sg7
I01
sg8
I2103
sg9
I28
sg10
I1835558
sg11
F0.30434782608695654
sg12
F0.008785691873235017
sg13
I00
sg14
I0
sg15
I0
sg16
F0.01555352241537054
sg17
I554422
ssS'SHELBY REX'
p120
(dp121
g3
I211844
sg4
F0.358974358974359
sg5
I2003885
sg6
I200000
sg7
I01
sg8
I91
sg9
I13
sg10
I1624396
sg11
F0.21739130434782608
sg12
F0.057777777777777775
sg13
I01
sg14
I-4167
sg15
I22884
sg16
F0.10227272727272728
sg17
I0
ssS'LEMAISTRE CHARLES'
p122
(dp123
g3
I0
sg4
F0.0
sg5
I87492
sg6
I0
sg7
I00
sg8
I0
sg9
I0
sg10
I412878
sg11
F0.6956521739130435
sg12
F0.0
sg13
I00
sg14
I-25000
sg15
I0
sg16
F0.0
sg17
I0
ssS'DEFFNER JOSEPH M'
p124
(dp125
g3
I206121
sg4
F0.05405405405405406
sg5
I1208649
sg6
I600000
sg7
I01
sg8
I552
sg9
I115
sg10
I17378
sg11
F0.2608695652173913
sg12
F0.16106442577030813
sg13
I00
sg14
I0
sg15
I41626
sg16
F0.15101522842639595
sg17
I335349
ssS'KISHKILL JOSEPH G'
p126
(dp127
g3
I174246
sg4
F0.0
sg5
I704896
sg6
I0
sg7
I01
sg8
I0
sg9
I0
sg10
I0
sg11
F0.5652173913043478
sg12
F0.0
sg13
I00
sg14
I-51042
sg15
I116335
sg16
F0.0
sg17
I0
ssS'WHALLEY LAWRENCE G'
p128
(dp129
g3
I510364
sg4
F0.04316546762589928
sg5
I4677574
sg6
I3000000
sg7
I01
sg8
I3920
sg9
I186
sg10
I3282960
sg11
F0.2608695652173913
sg12
F0.03090214321315833
sg13
I00
sg14
I0
sg15
I57838
sg16
F0.03193916349809886
sg17
I808346
ssS'PIRO JIM'
p130
(dp131
g3
I0
sg4
F0.0625
sg5
I0
sg6
I0
sg7
I01
sg8
I3
sg9
I0
sg10
I0
sg11
F0.6086956521739131
sg12
F0.0
sg13
I00
sg14
I0
sg15
I0
sg16
F0.013513513513513514
sg17
I0
ssS'MCCONNELL MICHAEL S'
p132
(dp133
g3
I365038
sg4
F0.07075127644055434
sg5
I2101364
sg6
I1100000
sg7
I01
sg8
I2189
sg9
I92
sg10
I1623010
sg11
F0.2608695652173913
sg12
F0.02763592670471613
sg13
I00
sg14
I0
sg15
I81364
sg16
F0.047109207708779445
sg17
I554422
ssS'DELAINEY DAVID W'
p134
(dp135
g3
I365163
sg4
F0.198435972629521
sg5
I4747979
sg6
I3000000
sg7
I01
sg8
I2097
sg9
I66
sg10
I2291113
sg11
F0.21739130434782608
sg12
F0.02133850630455868
sg13
I01
sg14
I0
sg15
I86174
sg16
F0.10954235637779941
sg17
I1294981
ssS'SULLIVAN-SHAKLOVITZ COLLEEN'
p136
(dp137
g3
I162779
sg4
F0.0
sg5
I999356
sg6
I100000
sg7
I00
sg8
I0
sg9
I0
sg10
I1362375
sg11
F0.5652173913043478
sg12
F0.0
sg13
I00
sg14
I0
sg15
I0
sg16
F0.0
sg17
I554422
ssS'WROBEL BRUCE'
p138
(dp139
g3
I0
sg4
F0.0
sg5
I0
sg6
I0
sg7
I00
sg8
I0
sg9
I0
sg10
I139130
sg11
F0.8260869565217391
sg12
F0.0
sg13
I00
sg14
I0
sg15
I0
sg16
F0.0
sg17
I0
ssS'LINDHOLM TOD A'
p140
(dp141
g3
I236457
sg4
F0.0
sg5
I875889
sg6
I200000
sg7
I01
sg8
I0
sg9
I0
sg10
I2549361
sg11
F0.43478260869565216
sg12
F0.0
sg13
I00
sg14
I0
sg15
I57727
sg16
F0.0
sg17
I175000
ssS'MEYER JEROME J'
p142
(dp143
g3
I0
sg4
F0.0
sg5
I2151
sg6
I0
sg7
I00
sg8
I0
sg9
I0
sg10
I0
sg11
F0.7391304347826086
sg12
F0.0
sg13
I00
sg14
I-38346
sg15
I2151
sg16
F0.0
sg17
I0
ssS'LAY KENNETH L'
p144
(dp145
g3
I1072321
sg4
F0.4444444444444444
sg5
I103559793
sg6
I7000000
sg7
I01
sg8
I2411
sg9
I123
sg10
I34348384
sg11
F0.08695652173913043
sg12
F0.028785396676807865
sg13
I01
sg14
I-300000
sg15
I99832
sg16
F0.03225806451612903
sg17
I3600000
ssS'BUTTS ROBERT H'
p146
(dp147
g3
I261516
sg4
F0.0
sg5
I1271582
sg6
I750000
sg7
I01
sg8
I0
sg9
I0
sg10
I0
sg11
F0.4782608695652174
sg12
F0.0
sg13
I00
sg14
I-75000
sg15
I9410
sg16
F0.0
sg17
I175000
ssS'OLSON CINDY K'
p148
(dp149
g3
I329078
sg4
F0.28846153846153844
sg5
I1321557
sg6
I750000
sg7
I01
sg8
I856
sg9
I20
sg10
I1637034
sg11
F0.21739130434782608
sg12
F0.016891891891891893
sg13
I00
sg14
I0
sg15
I63791
sg16
F0.02831715210355987
sg17
I100000
ssS'MCDONALD REBECCA'
p150
(dp151
g3
I0
sg4
F0.07692307692307693
sg5
I0
sg6
I0
sg7
I01
sg8
I720
sg9
I54
sg10
I757301
sg11
F0.5217391304347826
sg12
F0.06040268456375839
sg13
I00
sg14
I0
sg15
I0
sg16
F0.06063947078280044
sg17
I0
ssS'CUMBERLAND MICHAEL S'
p152
(dp153
g3
I184899
sg4
F0.0
sg5
I807956
sg6
I325000
sg7
I00
sg8
I0
sg9
I0
sg10
I0
sg11
F0.5652173913043478
sg12
F0.0
sg13
I00
sg14
I0
sg15
I22344
sg16
F0.0
sg17
I275000
ssS'GAHN ROBERT S'
p154
(dp155
g3
I192008
sg4
F0.0
sg5
I900585
sg6
I509870
sg7
I00
sg8
I0
sg9
I0
sg10
I83237
sg11
F0.4782608695652174
sg12
F0.0
sg13
I00
sg14
I-1042
sg15
I50080
sg16
F0.0
sg17
I0
ssS'BADUM JAMES P'
p156
(dp157
g3
I0
sg4
F0.0
sg5
I182466
sg6
I0
sg7
I00
sg8
I0
sg9
I0
sg10
I257817
sg11
F0.6956521739130435
sg12
F0.0
sg13
I00
sg14
I0
sg15
I3486
sg16
F0.0
sg17
I0
ssS'HERMANN ROBERT J'
p158
(dp159
g3
I262663
sg4
F0.0
sg5
I1297461
sg6
I700000
sg7
I01
sg8
I0
sg9
I0
sg10
I187500
sg11
F0.43478260869565216
sg12
F0.0
sg13
I00
sg14
I-280000
sg15
I48357
sg16
F0.0
sg17
I150000
ssS'FALLON JAMES B'
p160
(dp161
g3
I304588
sg4
F0.49333333333333335
sg5
I3676340
sg6
I2500000
sg7
I01
sg8
I1604
sg9
I42
sg10
I940257
sg11
F0.2608695652173913
sg12
F0.023931623931623933
sg13
I00
sg14
I0
sg15
I95924
sg16
F0.04316939890710383
sg17
I374347
ssS'GATHMANN WILLIAM D'
p162
(dp163
g3
I0
sg4
F0.0
sg5
I0
sg6
I0
sg7
I00
sg8
I0
sg9
I0
sg10
I1753766
sg11
F0.7391304347826086
sg12
F0.0
sg13
I00
sg14
I0
sg15
I0
sg16
F0.0
sg17
I0
ssS'HORTON STANLEY C'
p164
(dp165
g3
I0
sg4
F0.013979496738117428
sg5
I3131860
sg6
I0
sg7
I01
sg8
I1074
sg9
I44
sg10
I5210569
sg11
F0.43478260869565216
sg12
F0.01872340425531915
sg13
I00
sg14
I0
sg15
I0
sg16
F0.017236342389716622
sg17
I0
ssS'BOWEN JR RAYMOND M'
p166
(dp167
g3
I278601
sg4
F0.5555555555555556
sg5
I2669589
sg6
I1350000
sg7
I01
sg8
I1593
sg9
I140
sg10
I0
sg11
F0.21739130434782608
sg12
F0.07534983853606028
sg13
I01
sg14
I-833
sg15
I65907
sg16
F0.08222811671087533
sg17
I974293
ssS'GILLIS JOHN'
p168
(dp169
g3
I0
sg4
F0.0
sg5
I0
sg6
I0
sg7
I00
sg8
I0
sg9
I0
sg10
I9803
sg11
F0.782608695652174
sg12
F0.0
sg13
I00
sg14
I0
sg15
I0
sg16
F0.0
sg17
I0
ssS'FITZGERALD JAY L'
p170
(dp171
g3
I199157
sg4
F0.5
sg5
I1414857
sg6
I350000
sg7
I01
sg8
I723
sg9
I1
sg10
I664461
sg11
F0.2608695652173913
sg12
F0.0010683760683760685
sg13
I00
sg14
I0
sg15
I23870
sg16
F0.009453781512605041
sg17
I556416
ssS'MORAN MICHAEL P'
p172
(dp173
g3
I0
sg4
F0.0
sg5
I0
sg6
I0
sg7
I01
sg8
I127
sg9
I0
sg10
I59539
sg11
F0.6086956521739131
sg12
F0.0
sg13
I00
sg14
I0
sg15
I0
sg16
F0.0
sg17
I0
ssS'REDMOND BRIAN L'
p174
(dp175
g3
I96840
sg4
F0.22171945701357465
sg5
I111529
sg6
I0
sg7
I01
sg8
I1063
sg9
I204
sg10
I7509039
sg11
F0.391304347826087
sg12
F0.12208258527827648
sg13
I00
sg14
I0
sg15
I14689
sg16
F0.13372093023255813
sg17
I0
ssS'BAZELIDES PHILIP J'
p176
(dp177
g3
I80818
sg4
F0.0
sg5
I860136
sg6
I0
sg7
I00
sg8
I0
sg9
I0
sg10
I1599641
sg11
F0.6086956521739131
sg12
F0.0
sg13
I00
sg14
I0
sg15
I0
sg16
F0.0
sg17
I93750
ssS'BELDEN TIMOTHY N'
p178
(dp179
g3
I213999
sg4
F0.2231404958677686
sg5
I5501630
sg6
I5249999
sg7
I01
sg8
I5521
sg9
I228
sg10
I953136
sg11
F0.17391304347826086
sg12
F0.028532098610937303
sg13
I01
sg14
I-2334434
sg15
I17355
sg16
F0.03964601769911504
sg17
I0
ssS'DIMICHELE RICHARD G'
p180
(dp181
g3
I262788
sg4
F0.0
sg5
I2368151
sg6
I1000000
sg7
I01
sg8
I0
sg9
I0
sg10
I8191755
sg11
F0.4782608695652174
sg12
F0.0
sg13
I00
sg14
I0
sg15
I35812
sg16
F0.0
sg17
I694862
ssS'DURAN WILLIAM D'
p182
(dp183
g3
I210692
sg4
F0.25
sg5
I2093263
sg6
I750000
sg7
I01
sg8
I599
sg9
I106
sg10
I1451869
sg11
F0.2608695652173913
sg12
F0.1172566371681416
sg13
I00
sg14
I0
sg15
I25785
sg16
F0.11899563318777293
sg17
I1105218
ssS'THORN TERENCE H'
p184
(dp185
g3
I222093
sg4
F0.0
sg5
I911453
sg6
I0
sg7
I01
sg8
I73
sg9
I0
sg10
I4452476
sg11
F0.34782608695652173
sg12
F0.0
sg13
I00
sg14
I0
sg15
I46145
sg16
F0.0
sg17
I200000
ssS'FASTOW ANDREW S'
p186
(dp187
g3
I440698
sg4
F0.0
sg5
I2424083
sg6
I1300000
sg7
I01
sg8
I0
sg9
I0
sg10
I0
sg11
F0.43478260869565216
sg12
F0.0
sg13
I01
sg14
I-1386055
sg15
I55921
sg16
F0.0
sg17
I1736055
ssS'FOY JOE'
p188
(dp189
g3
I0
sg4
F0.0
sg5
I181755
sg6
I0
sg7
I01
sg8
I2
sg9
I0
sg10
I343434
sg11
F0.5652173913043478
sg12
F0.0
sg13
I00
sg14
I0
sg15
I0
sg16
F0.0
sg17
I0
ssS'CALGER CHRISTOPHER F'
p190
(dp191
g3
I240189
sg4
F0.1736111111111111
sg5
I1639297
sg6
I1250000
sg7
I01
sg8
I2188
sg9
I199
sg10
I0
sg11
F0.21739130434782608
sg12
F0.07659738260200154
sg13
I01
sg14
I-262500
sg15
I35818
sg16
F0.08169219547775347
sg17
I375304
ssS'RICE KENNETH D'
p192
(dp193
g3
I420636
sg4
F0.2222222222222222
sg5
I505050
sg6
I1750000
sg7
I01
sg8
I864
sg9
I42
sg10
I19794175
sg11
F0.17391304347826086
sg12
F0.04640883977900553
sg13
I01
sg14
I-3504386
sg15
I46950
sg16
F0.04983748645720477
sg17
I1617011
ssS'KAMINSKI WINCENTY J'
p194
(dp195
g3
I275101
sg4
F0.011901447661469933
sg5
I1086821
sg6
I400000
sg7
I01
sg8
I583
sg9
I41
sg10
I850010
sg11
F0.2608695652173913
sg12
F0.008899500759713479
sg13
I00
sg14
I0
sg15
I83585
sg16
F0.011172595520421607
sg17
I323466
ssS'COX DAVID'
p196
(dp197
g3
I314288
sg4
F0.12121212121212122
sg5
I1101393
sg6
I800000
sg7
I01
sg8
I71
sg9
I0
sg10
I117551
sg11
F0.30434782608695654
sg12
F0.0
sg13
I00
sg14
I-41250
sg15
I27861
sg16
F0.02962962962962963
sg17
I0
ssS'OVERDYKE JR JERE C'
p198
(dp199
g3
I94941
sg4
F0.0
sg5
I249787
sg6
I0
sg7
I01
sg8
I0
sg9
I0
sg10
I5266578
sg11
F0.5217391304347826
sg12
F0.0
sg13
I00
sg14
I0
sg15
I18834
sg16
F0.0
sg17
I135836
ssS'PEREIRA PAULO V. FERRAZ'
p200
(dp201
g3
I0
sg4
F0.0
sg5
I27942
sg6
I0
sg7
I00
sg8
I0
sg9
I0
sg10
I0
sg11
F0.7391304347826086
sg12
F0.0
sg13
I00
sg14
I-101250
sg15
I27942
sg16
F0.0
sg17
I0
ssS'STABLER FRANK'
p202
(dp203
g3
I239502
sg4
F0.0
sg5
I1112087
sg6
I500000
sg7
I01
sg8
I0
sg9
I0
sg10
I0
sg11
F0.5652173913043478
sg12
F0.0
sg13
I00
sg14
I0
sg15
I16514
sg16
F0.0
sg17
I0
ssS'SKILLING JEFFREY K'
p204
(dp205
g3
I1111258
sg4
F0.2777777777777778
sg5
I8682716
sg6
I5600000
sg7
I01
sg8
I2042
sg9
I88
sg10
I19250000
sg11
F0.21739130434782608
sg12
F0.0242624758753791
sg13
I01
sg14
I0
sg15
I29336
sg16
F0.03159303882195449
sg17
I1920000
ssS'BLAKE JR. NORMAN P'
p206
(dp207
g3
I0
sg4
F0.0
sg5
I1279
sg6
I0
sg7
I00
sg8
I0
sg9
I0
sg10
I0
sg11
F0.7391304347826086
sg12
F0.0
sg13
I00
sg14
I-113784
sg15
I1279
sg16
F0.0
sg17
I0
ssS'SHERRICK JEFFREY B'
p208
(dp209
g3
I0
sg4
F0.72
sg5
I0
sg6
I0
sg7
I01
sg8
I583
sg9
I39
sg10
I1426469
sg11
F0.5217391304347826
sg12
F0.0636215334420881
sg13
I00
sg14
I0
sg15
I0
sg16
F0.08934169278996865
sg17
I0
ssS'PRENTICE JAMES'
p210
(dp211
g3
I0
sg4
F0.0
sg5
I564348
sg6
I0
sg7
I01
sg8
I0
sg9
I0
sg10
I886231
sg11
F0.6521739130434783
sg12
F0.0
sg13
I00
sg14
I0
sg15
I0
sg16
F0.0
sg17
I0
ssS'GRAY RODNEY'
p212
(dp213
g3
I6615
sg4
F0.0
sg5
I1146658
sg6
I0
sg7
I00
sg8
I0
sg9
I0
sg10
I0
sg11
F0.6956521739130435
sg12
F0.0
sg13
I00
sg14
I0
sg15
I0
sg16
F0.0
sg17
I365625
ssS'UMANOFF ADAM S'
p214
(dp215
g3
I288589
sg4
F0.0
sg5
I1130461
sg6
I788750
sg7
I01
sg8
I41
sg9
I12
sg10
I0
sg11
F0.5217391304347826
sg12
F0.10810810810810811
sg13
I00
sg14
I0
sg15
I53122
sg16
F0.09302325581395349
sg17
I0
ssS'KEAN STEVEN J'
p216
(dp217
g3
I404338
sg4
F0.05725699067909454
sg5
I1747522
sg6
I1000000
sg7
I01
sg8
I3639
sg9
I140
sg10
I2022048
sg11
F0.2608695652173913
sg12
F0.010976948408342482
sg13
I00
sg14
I0
sg15
I41953
sg16
F0.02700763593501768
sg17
I300000
ssS'FOWLER PEGGY'
p218
(dp219
g3
I0
sg4
F0.0
sg5
I0
sg6
I0
sg7
I01
sg8
I10
sg9
I0
sg10
I1324578
sg11
F0.6086956521739131
sg12
F0.0
sg13
I00
sg14
I0
sg15
I0
sg16
F0.0
sg17
I0
ssS'WASAFF GEORGE'
p220
(dp221
g3
I259996
sg4
F0.23333333333333334
sg5
I1034395
sg6
I325000
sg7
I01
sg8
I337
sg9
I22
sg10
I1668260
sg11
F0.21739130434782608
sg12
F0.055
sg13
I00
sg14
I-583325
sg15
I0
sg16
F0.06744186046511629
sg17
I200000
ssS'WHITE JR THOMAS E'
p222
(dp223
g3
I317543
sg4
F0.0
sg5
I1934359
sg6
I450000
sg7
I01
sg8
I0
sg9
I0
sg10
I1297049
sg11
F0.5217391304347826
sg12
F0.0
sg13
I00
sg14
I0
sg15
I81353
sg16
F0.0
sg17
I0
ssS'CHRISTODOULOU DIOMEDES'
p224
(dp225
g3
I0
sg4
F0.0
sg5
I0
sg6
I0
sg7
I01
sg8
I0
sg9
I0
sg10
I5127155
sg11
F0.7391304347826086
sg12
F0.0
sg13
I00
sg14
I0
sg15
I0
sg16
F0.0
sg17
I0
ssS'ALLEN PHILLIP K'
p226
(dp227
g3
I201955
sg4
F0.029612756264236904
sg5
I4484442
sg6
I4175000
sg7
I01
sg8
I1407
sg9
I47
sg10
I1729541
sg11
F0.13043478260869565
sg12
F0.016195727084769126
sg13
I00
sg14
I-3081055
sg15
I13868
sg16
F0.0219737100255052
sg17
I304805
ssS'SHARP VICTORIA T'
p228
(dp229
g3
I248146
sg4
F0.04411764705882353
sg5
I1576511
sg6
I600000
sg7
I01
sg8
I2477
sg9
I24
sg10
I281073
sg11
F0.21739130434782608
sg12
F0.007653061224489796
sg13
I00
sg14
I0
sg15
I116337
sg16
F0.009168704156479218
sg17
I422158
ssS'JAEDICKE ROBERT'
p230
(dp231
g3
I0
sg4
F0.0
sg5
I83750
sg6
I0
sg7
I00
sg8
I0
sg9
I0
sg10
I431750
sg11
F0.6086956521739131
sg12
F0.0
sg13
I00
sg14
I-25000
sg15
I0
sg16
F0.0
sg17
I0
ssS'WINOKUR JR. HERBERT S'
p232
(dp233
g3
I0
sg4
F0.0
sg5
I84992
sg6
I0
sg7
I00
sg8
I0
sg9
I0
sg10
I0
sg11
F0.7391304347826086
sg12
F0.0
sg13
I00
sg14
I-25000
sg15
I1413
sg16
F0.0
sg17
I0
ssS'BROWN MICHAEL'
p234
(dp235
g3
I0
sg4
F0.024390243902439025
sg5
I49288
sg6
I0
sg7
I01
sg8
I761
sg9
I13
sg10
I0
sg11
F0.5652173913043478
sg12
F0.008748317631224764
sg13
I00
sg14
I0
sg15
I49288
sg16
F0.0091683038637852
sg17
I0
ssS'MCCLELLAN GEORGE'
p236
(dp237
g3
I263413
sg4
F0.0
sg5
I1318763
sg6
I900000
sg7
I01
sg8
I1469
sg9
I52
sg10
I506765
sg11
F0.30434782608695654
sg12
F0.02981651376146789
sg13
I00
sg14
I-125000
sg15
I228763
sg16
F0.029001673173452314
sg17
I0
ssS'HUGHES JAMES A'
p238
(dp239
g3
I0
sg4
F0.14705882352941177
sg5
I0
sg6
I0
sg7
I01
sg8
I589
sg9
I35
sg10
I754966
sg11
F0.5217391304347826
sg12
F0.048678720445062586
sg13
I00
sg14
I0
sg15
I0
sg16
F0.05312084993359894
sg17
I0
ssS'REYNOLDS LAWRENCE'
p240
(dp241
g3
I76399
sg4
F0.0
sg5
I394475
sg6
I100000
sg7
I00
sg8
I0
sg9
I0
sg10
I4160672
sg11
F0.391304347826087
sg12
F0.0
sg13
I00
sg14
I-200000
sg15
I8409
sg16
F0.0
sg17
I156250
ssS'PICKERING MARK R'
p242
(dp243
g3
I655037
sg4
F0.0
sg5
I1386690
sg6
I300000
sg7
I01
sg8
I728
sg9
I7
sg10
I28798
sg11
F0.391304347826087
sg12
F0.0077951002227171495
sg13
I00
sg14
I0
sg15
I31653
sg16
F0.007253886010362694
sg17
I0
ssS'BHATNAGAR SANJAY'
p244
(dp245
g3
I0
sg4
F0.034482758620689655
sg5
I15456290
sg6
I0
sg7
I01
sg8
I463
sg9
I0
sg10
I2604490
sg11
F0.43478260869565216
sg12
F0.0
sg13
I00
sg14
I0
sg15
I0
sg16
F0.0018115942028985507
sg17
I0
ssS'CARTER REBECCA C'
p246
(dp247
g3
I261809
sg4
F0.4666666666666667
sg5
I477557
sg6
I300000
sg7
I01
sg8
I196
sg9
I29
sg10
I0
sg11
F0.30434782608695654
sg12
F0.09294871794871795
sg13
I00
sg14
I-159792
sg15
I0
sg16
F0.11009174311926606
sg17
I75000
ssS'BUCHANAN HAROLD G'
p248
(dp249
g3
I248017
sg4
F0.0
sg5
I1054637
sg6
I500000
sg7
I01
sg8
I23
sg9
I0
sg10
I825464
sg11
F0.34782608695652173
sg12
F0.0
sg13
I00
sg14
I0
sg15
I600
sg16
F0.0
sg17
I304805
ssS'YEAP SOON'
p250
(dp251
g3
I0
sg4
F0.0
sg5
I55097
sg6
I0
sg7
I00
sg8
I0
sg9
I0
sg10
I192758
sg11
F0.7391304347826086
sg12
F0.0
sg13
I00
sg14
I0
sg15
I55097
sg16
F0.0
sg17
I0
ssS'MURRAY JULIA H'
p252
(dp253
g3
I229284
sg4
F0.044444444444444446
sg5
I812194
sg6
I400000
sg7
I01
sg8
I395
sg9
I11
sg10
I400478
sg11
F0.2608695652173913
sg12
F0.005018248175182482
sg13
I00
sg14
I0
sg15
I57580
sg16
F0.00581135449262405
sg17
I125000
ssS'GARLAND C KEVIN'
p254
(dp255
g3
I231946
sg4
F0.6136363636363636
sg5
I1566469
sg6
I850000
sg7
I01
sg8
I178
sg9
I10
sg10
I636246
sg11
F0.2608695652173913
sg12
F0.04784688995215311
sg13
I00
sg14
I0
sg15
I48405
sg16
F0.14624505928853754
sg17
I375304
ssS'DODSON KEITH'
p256
(dp257
g3
I221003
sg4
F0.21428571428571427
sg5
I319941
sg6
I70000
sg7
I01
sg8
I114
sg9
I10
sg10
I0
sg11
F0.43478260869565216
sg12
F0.056818181818181816
sg13
I00
sg14
I0
sg15
I28164
sg16
F0.06842105263157895
sg17
I0
ssS'YEAGER F SCOTT'
p258
(dp259
g3
I158403
sg4
F0.0
sg5
I360300
sg6
I0
sg7
I01
sg8
I0
sg9
I0
sg10
I8308552
sg11
F0.5217391304347826
sg12
F0.0
sg13
I01
sg14
I0
sg15
I53947
sg16
F0.0
sg17
I0
ssS'HIRKO JOSEPH'
p260
(dp261
g3
I0
sg4
F0.0
sg5
I91093
sg6
I0
sg7
I01
sg8
I0
sg9
I0
sg10
I30766064
sg11
F0.5652173913043478
sg12
F0.0
sg13
I01
sg14
I0
sg15
I77978
sg16
F0.0
sg17
I0
ssS'DIETRICH JANET R'
p262
(dp263
g3
I250100
sg4
F0.2222222222222222
sg5
I1410464
sg6
I600000
sg7
I01
sg8
I1902
sg9
I305
sg10
I1550019
sg11
F0.2608695652173913
sg12
F0.11858475894245724
sg13
I00
sg14
I0
sg15
I3475
sg16
F0.12106261859582543
sg17
I556416
ssS'DERRICK JR. JAMES V'
p264
(dp265
g3
I492375
sg4
F0.022002200220022004
sg5
I550981
sg6
I800000
sg7
I01
sg8
I1401
sg9
I64
sg10
I8831913
sg11
F0.17391304347826086
sg12
F0.029344337459880788
sg13
I00
sg14
I-1284000
sg15
I51124
sg16
F0.027184466019417475
sg17
I484000
ssS'FREVERT MARK A'
p266
(dp267
g3
I1060932
sg4
F0.2857142857142857
sg5
I17252530
sg6
I2000000
sg7
I01
sg8
I2979
sg9
I242
sg10
I10433518
sg11
F0.13043478260869565
sg12
F0.07389312977099237
sg13
I00
sg14
I-3367011
sg15
I86987
sg16
F0.07524271844660194
sg17
I1617011
ssS'PAI LOU L'
p268
(dp269
g3
I261879
sg4
F0.0
sg5
I3123383
sg6
I1000000
sg7
I01
sg8
I0
sg9
I0
sg10
I15364167
sg11
F0.5217391304347826
sg12
F0.0
sg13
I00
sg14
I0
sg15
I32047
sg16
F0.0
sg17
I0
ssS'HAYSLETT RODERICK J'
p270
(dp271
g3
I0
sg4
F0.03581526861451461
sg5
I0
sg6
I0
sg7
I01
sg8
I571
sg9
I35
sg10
I0
sg11
F0.5652173913043478
sg12
F0.01321253303133258
sg13
I00
sg14
I0
sg15
I0
sg16
F0.019676549865229112
sg17
I0
ssS'BAY FRANKLIN R'
p272
(dp273
g3
I239671
sg4
F0.0
sg5
I827696
sg6
I400000
sg7
I01
sg8
I0
sg9
I0
sg10
I0
sg11
F0.43478260869565216
sg12
F0.0
sg13
I00
sg14
I-201641
sg15
I129142
sg16
F0.0
sg17
I0
ssS'MCCARTY DANNY J'
p274
(dp275
g3
I0
sg4
F0.009302325581395349
sg5
I0
sg6
I0
sg7
I01
sg8
I508
sg9
I25
sg10
I664375
sg11
F0.5217391304347826
sg12
F0.017445917655268667
sg13
I00
sg14
I0
sg15
I0
sg16
F0.016383495145631068
sg17
I0
ssS'FUGH JOHN L'
p276
(dp277
g3
I0
sg4
F0.0
sg5
I50591
sg6
I0
sg7
I00
sg8
I0
sg9
I0
sg10
I176378
sg11
F0.7391304347826086
sg12
F0.0
sg13
I00
sg14
I0
sg15
I0
sg16
F0.0
sg17
I0
ssS'SCRIMSHAW MATTHEW'
p278
(dp279
g3
I0
sg4
F0.0
sg5
I0
sg6
I0
sg7
I01
sg8
I0
sg9
I0
sg10
I759557
sg11
F0.782608695652174
sg12
F0.0
sg13
I00
sg14
I0
sg15
I0
sg16
F0.0
sg17
I0
ssS'KOENIG MARK E'
p280
(dp281
g3
I309946
sg4
F0.2459016393442623
sg5
I1587421
sg6
I700000
sg7
I01
sg8
I2271
sg9
I53
sg10
I671737
sg11
F0.21739130434782608
sg12
F0.02232518955349621
sg13
I01
sg14
I0
sg15
I127017
sg16
F0.02792607802874743
sg17
I300000
ssS'SAVAGE FRANK'
p282
(dp283
g3
I0
sg4
F0.0
sg5
I3750
sg6
I0
sg7
I00
sg8
I0
sg9
I0
sg10
I0
sg11
F0.782608695652174
sg12
F0.0
sg13
I00
sg14
I-121284
sg15
I0
sg16
F0.0
sg17
I0
ssS'IZZO LAWRENCE L'
p284
(dp285
g3
I85274
sg4
F0.2631578947368421
sg5
I1979596
sg6
I0
sg7
I01
sg8
I437
sg9
I28
sg10
I2165172
sg11
F0.30434782608695654
sg12
F0.056451612903225805
sg13
I00
sg14
I0
sg15
I28093
sg16
F0.06407766990291262
sg17
I312500
ssS'TILNEY ELIZABETH A'
p286
(dp287
g3
I247338
sg4
F0.5789473684210527
sg5
I399393
sg6
I300000
sg7
I01
sg8
I379
sg9
I10
sg10
I591250
sg11
F0.2608695652173913
sg12
F0.021739130434782608
sg13
I00
sg14
I-575000
sg15
I0
sg16
F0.04384133611691023
sg17
I275000
ssS'MARTIN AMANDA K'
p288
(dp289
g3
I349487
sg4
F0.0
sg5
I8407016
sg6
I0
sg7
I01
sg8
I477
sg9
I8
sg10
I2070306
sg11
F0.34782608695652173
sg12
F0.005256241787122208
sg13
I00
sg14
I0
sg15
I8211
sg16
F0.0045662100456621
sg17
I5145434
ssS'BUY RICHARD B'
p290
(dp291
g3
I330546
sg4
F0.06742640075973409
sg5
I2355702
sg6
I900000
sg7
I01
sg8
I2333
sg9
I156
sg10
I2542813
sg11
F0.21739130434782608
sg12
F0.04428044280442804
sg13
I00
sg14
I-694862
sg15
I0
sg16
F0.04960664335664336
sg17
I769862
ssS'GRAMM WENDY L'
p292
(dp293
g3
I0
sg4
F0.0
sg5
I119292
sg6
I0
sg7
I00
sg8
I0
sg9
I0
sg10
I0
sg11
F0.8260869565217391
sg12
F0.0
sg13
I00
sg14
I0
sg15
I0
sg16
F0.0
sg17
I0
ssS'CAUSEY RICHARD A'
p294
(dp295
g3
I415189
sg4
F0.24489795918367346
sg5
I1868758
sg6
I1000000
sg7
I01
sg8
I1585
sg9
I58
sg10
I0
sg11
F0.21739130434782608
sg12
F0.0306553911205074
sg13
I01
sg14
I-235000
sg15
I30674
sg16
F0.03606388459556929
sg17
I350000
ssS'TAYLOR MITCHELL S'
p296
(dp297
g3
I265214
sg4
F0.0
sg5
I1092663
sg6
I600000
sg7
I01
sg8
I300
sg9
I0
sg10
I3181250
sg11
F0.43478260869565216
sg12
F0.0
sg13
I00
sg14
I0
sg15
I0
sg16
F0.0
sg17
I0
ssS'DONAHUE JR JEFFREY M'
p298
(dp299
g3
I278601
sg4
F0.5
sg5
I875760
sg6
I800000
sg7
I01
sg8
I772
sg9
I188
sg10
I765920
sg11
F0.2608695652173913
sg12
F0.21734104046242775
sg13
I00
sg14
I-300000
sg15
I96268
sg16
F0.22435174746335965
sg17
I0
ssS'GLISAN JR BEN F'
p300
(dp301
g3
I274975
sg4
F0.375
sg5
I1272284
sg6
I600000
sg7
I01
sg8
I874
sg9
I52
sg10
I384728
sg11
F0.21739130434782608
sg12
F0.05956471935853379
sg13
I01
sg14
I0
sg15
I125978
sg16
F0.06524184476940383
sg17
I71023
ss.