(lp0
S'poi'
p1
aS'bonus'
p2
aS'exercised_stock_options'
p3
aS'zero_values'
p4
aS'poi_all_emails_frac'
p5
aS'salary'
p6
aS'email_avail'
p7
aS'deferred_income'
p8
aS'poi_from_emails_frac'
p9
aS'total_payments'
p10
a.